; Function Attrs: mustprogress nounwind uwtable
define hidden void @_ZN4cvc58internal6theory11quantifiers15BoundedIntegers8presolveEv(ptr noundef nonnull align 8 dereferenceable(768) %0) unnamed_addr #6 align 2 personality ptr @__gxx_personality_v0 {
  %2 = getelementptr inbounds nuw i8, ptr %0, i64 720
  %3 = getelementptr inbounds nuw i8, ptr %0, i64 736
  %4 = load ptr, ptr %3, align 8, !tbaa !366
  invoke void @_ZNSt8_Rb_treeIN4cvc58internal12NodeTemplateILb1EEESt4pairIKS3_St3mapIS3_NS1_6theory11quantifiers15BoundedIntegers13BoundInstTrieESt4lessIS3_ESaIS4_IS5_SA_EEEESt10_Select1stISG_ESC_SaISG_EE8_M_eraseEPSt13_Rb_tree_nodeISG_E(ptr noundef nonnull align 8 dereferenceable(48) %2, ptr noundef %4)
          to label %_ZNSt3mapIN4cvc58internal12NodeTemplateILb1EEES_IS3_NS1_6theory11quantifiers15BoundedIntegers13BoundInstTrieESt4lessIS3_ESaISt4pairIKS3_S7_EEES9_SaISA_ISB_SE_EEE5clearEv.exit unwind label %5

5:                                                ; preds = %1
  %6 = landingpad { ptr, i32 }
          catch ptr null
  %7 = extractvalue { ptr, i32 } %6, 0
  tail call void @__clang_call_terminate(ptr %7) #28
  unreachable

_ZNSt3mapIN4cvc58internal12NodeTemplateILb1EEES_IS3_NS1_6theory11quantifiers15BoundedIntegers13BoundInstTrieESt4lessIS3_ESaISt4pairIKS3_S7_EEES9_SaISA_ISB_SE_EEE5clearEv.exit: ; preds = %1
  %8 = getelementptr inbounds nuw i8, ptr %0, i64 728
  store ptr null, ptr %3, align 8, !tbaa !366
  %9 = getelementptr inbounds nuw i8, ptr %0, i64 744
  store ptr %8, ptr %9, align 8, !tbaa !367
  %10 = getelementptr inbounds nuw i8, ptr %0, i64 752
  store ptr %8, ptr %10, align 8, !tbaa !368
  %11 = getelementptr inbounds nuw i8, ptr %0, i64 760
  store i64 0, ptr %11, align 8, !tbaa !369
  ret void
}